target datalayout = "e-m:e-p270:32:32-p271:32:32-p272:64:64-i64:64-i128:128-f80:128-n8:16:32:64-S128"
target triple = "x86_64-pc-linux-gnu"

%struct.wedge_params_type = type { i32, ptr, ptr, ptr }
%struct.INTERINTER_COMPOUND_DATA = type { ptr, i8, i8, i8, i8 }

; Function Attrs: nounwind uwtable
define internal ptr @av1_get_contiguous_soft_mask(i8 noundef signext %0, i8 noundef signext %1, i8 noundef zeroext %2) #0 {
  %4 = alloca i8, align 1
  %5 = alloca i8, align 1
  %6 = alloca i8, align 1
  store i8 %0, ptr %4, align 1
  store i8 %1, ptr %5, align 1
  store i8 %2, ptr %6, align 1
  %7 = load i8, ptr %6, align 1
  %8 = zext i8 %7 to i64
  %9 = getelementptr inbounds [22 x %struct.wedge_params_type], ptr @av1_wedge_params_lookup, i64 0, i64 %8
  %10 = getelementptr inbounds nuw %struct.wedge_params_type, ptr %9, i32 0, i32 3
  %11 = load ptr, ptr %10, align 8
  %12 = load i8, ptr %5, align 1
  %13 = sext i8 %12 to i64
  %14 = getelementptr inbounds [16 x ptr], ptr %11, i64 %13
  %15 = load i8, ptr %4, align 1
  %16 = sext i8 %15 to i64
  %17 = getelementptr inbounds [16 x ptr], ptr %14, i64 0, i64 %16
  %18 = load ptr, ptr %17, align 8
  ret ptr %18
}

; Function Attrs: nounwind uwtable
define hidden ptr @av1_get_compound_type_mask(ptr noundef %0, i8 noundef zeroext %1) #0 {
  %3 = alloca ptr, align 8
  %4 = alloca ptr, align 8
  %5 = alloca i8, align 1
  store ptr %0, ptr %4, align 8
  store i8 %1, ptr %5, align 1
  %6 = load ptr, ptr %4, align 8
  %7 = getelementptr inbounds nuw %struct.INTERINTER_COMPOUND_DATA, ptr %6, i32 0, i32 4
  %8 = load i8, ptr %7, align 1
  %9 = zext i8 %8 to i32
  switch i32 %9, label %19 [
    i32 2, label %10
  ]

10:                                               ; preds = %2
  %11 = load ptr, ptr %4, align 8
  %12 = getelementptr inbounds nuw %struct.INTERINTER_COMPOUND_DATA, ptr %11, i32 0, i32 1
  %13 = load i8, ptr %12, align 8
  %14 = load ptr, ptr %4, align 8
  %15 = getelementptr inbounds nuw %struct.INTERINTER_COMPOUND_DATA, ptr %14, i32 0, i32 2
  %16 = load i8, ptr %15, align 1
  %17 = load i8, ptr %5, align 1
  %18 = call ptr @av1_get_contiguous_soft_mask(i8 noundef signext %13, i8 noundef signext %16, i8 noundef zeroext %17)
  store ptr %18, ptr %3, align 8
  br label %23

19:                                               ; preds = %2
  %20 = load ptr, ptr %4, align 8
  %21 = getelementptr inbounds nuw %struct.INTERINTER_COMPOUND_DATA, ptr %20, i32 0, i32 0
  %22 = load ptr, ptr %21, align 8
  store ptr %22, ptr %3, align 8
  br label %23

23:                                               ; preds = %19, %10
  %24 = load ptr, ptr %3, align 8
  ret ptr %24
}