; Function Attrs: mustprogress nofree norecurse nosync nounwind willreturn memory(read, inaccessiblemem: none) uwtable
define hidden ptr @av1_get_compound_type_mask(ptr nocapture noundef readonly %0, i8 noundef zeroext %1) local_unnamed_addr #6 {
  %3 = getelementptr inbounds nuw i8, ptr %0, i64 11
  %4 = load i8, ptr %3, align 1
  %cond = icmp eq i8 %4, 2
  br i1 %cond, label %5, label %16

5:                                                ; preds = %2
  %6 = getelementptr inbounds nuw i8, ptr %0, i64 8
  %7 = load i8, ptr %6, align 8
  %8 = getelementptr inbounds nuw i8, ptr %0, i64 9
  %9 = load i8, ptr %8, align 1
  %10 = zext i8 %1 to i64
  %11 = getelementptr inbounds [22 x %struct.wedge_params_type], ptr @av1_wedge_params_lookup, i64 0, i64 %10, i32 3
  %12 = load ptr, ptr %11, align 8
  %13 = sext i8 %9 to i64
  %14 = sext i8 %7 to i64
  %15 = getelementptr inbounds [16 x ptr], ptr %12, i64 %13, i64 %14
  br label %16

16:                                               ; preds = %2, %5
  %.0.in = phi ptr [ %15, %5 ], [ %0, %2 ]
  %.0 = load ptr, ptr %.0.in, align 8
  ret ptr %.0
}